; Function Attrs: mustprogress nounwind uwtable
define dso_local void @_ZN4node6crypto7NodeBIOD0Ev(ptr noundef nonnull align 8 dereferenceable(64) %this) unnamed_addr #3 align 2 {
entry:
  store ptr getelementptr inbounds ({ [10 x ptr] }, ptr @_ZTVN4node6crypto7NodeBIOE, i64 0, i32 0, i64 2), ptr %this, align 8
  %read_head_.i = getelementptr inbounds i8, ptr %this, i64 48
  %0 = load ptr, ptr %read_head_.i, align 8
  %cmp.i = icmp eq ptr %0, null
  br i1 %cmp.i, label %_ZN4node6crypto7NodeBIOD2Ev.exit, label %delete.notnull.i

delete.notnull.i:                                 ; preds = %entry, %delete.end.i
  %current.0.i = phi ptr [ %1, %delete.end.i ], [ %0, %entry ]
  %next_.i = getelementptr inbounds i8, ptr %current.0.i, i64 32
  %1 = load ptr, ptr %next_.i, align 8
  %data_.i.i = getelementptr inbounds i8, ptr %current.0.i, i64 40
  %2 = load ptr, ptr %data_.i.i, align 8
  %isnull.i.i = icmp eq ptr %2, null
  br i1 %isnull.i.i, label %delete.end.i.i, label %delete.notnull.i.i

delete.notnull.i.i:                               ; preds = %delete.notnull.i
  tail call void @_ZdaPv(ptr noundef nonnull %2) #20
  br label %delete.end.i.i

delete.end.i.i:                                   ; preds = %delete.notnull.i.i, %delete.notnull.i
  %3 = load ptr, ptr %current.0.i, align 8
  %cmp.not.i.i = icmp eq ptr %3, null
  br i1 %cmp.not.i.i, label %delete.end.i, label %if.then.i.i

if.then.i.i:                                      ; preds = %delete.end.i.i
  %len_.i.i = getelementptr inbounds i8, ptr %current.0.i, i64 24
  %4 = load i64, ptr %len_.i.i, align 8
  %isolate_.i.i.i = getelementptr inbounds i8, ptr %3, i64 88
  %5 = load ptr, ptr %isolate_.i.i.i, align 8
  %sub.i.i = sub nsw i64 0, %4
  %call3.i.i = tail call noundef i64 @_ZN2v87Isolate37AdjustAmountOfExternalAllocatedMemoryEl(ptr noundef nonnull align 1 dereferenceable(1) %5, i64 noundef %sub.i.i) #16
  br label %delete.end.i

delete.end.i:                                     ; preds = %if.then.i.i, %delete.end.i.i
  tail call void @_ZdlPv(ptr noundef nonnull %current.0.i) #20
  %6 = load ptr, ptr %read_head_.i, align 8
  %cmp4.not.i = icmp eq ptr %1, %6
  br i1 %cmp4.not.i, label %_ZN4node6crypto7NodeBIOD2Ev.exit, label %delete.notnull.i, !llvm.loop !14

_ZN4node6crypto7NodeBIOD2Ev.exit:                 ; preds = %delete.end.i, %entry
  tail call void @_ZdlPv(ptr noundef nonnull %this) #20
  ret void
}